target datalayout = "e-m:e-p270:32:32-p271:32:32-p272:64:64-i64:64-i128:128-f80:128-n8:16:32:64-S128"
target triple = "x86_64-pc-linux-gnu"

%"class.absl::synchronization_internal::SemWaiter" = type <{ %union.sem_t, %"struct.std::atomic", [4 x i8] }>
%union.sem_t = type { i64, [24 x i8] }
%"struct.std::atomic" = type { %"struct.std::__atomic_base" }
%"struct.std::__atomic_base" = type { i32 }

@.str = private unnamed_addr constant [143 x i8] c"generated/home/dtcxzyw/WorkSpace/Projects/compilers/llvm-opt-benchmark/bench/abseil-cpp/abseil-cpp/absl/synchronization/internal/sem_waiter.cc\00", align 1
@.str.4 = private unnamed_addr constant [31 x i8] c"sem_post failed with errno %d\0A\00", align 1

; Function Attrs: mustprogress uwtable
define dso_local void @_ZN4absl24synchronization_internal9SemWaiter4PokeEv(ptr noundef nonnull align 8 dereferenceable(36) %0) #0 align 2 {
  %2 = alloca ptr, align 8
  %3 = alloca ptr, align 8
  store ptr %0, ptr %2, align 8, !tbaa !4
  %4 = load ptr, ptr %2, align 8
  %5 = getelementptr inbounds nuw %"class.absl::synchronization_internal::SemWaiter", ptr %4, i32 0, i32 0
  %6 = call i32 @sem_post(ptr noundef %5) #9
  %7 = icmp ne i32 %6, 0
  br i1 %7, label %8, label %16

8:                                                ; preds = %1
  br label %9

9:                                                ; preds = %8
  call void @llvm.lifetime.start.p0(i64 8, ptr %3) #9
  store ptr getelementptr (i8, ptr @.str, i64 129), ptr %3, align 8, !tbaa !9
  %10 = call ptr @__errno_location() #10
  %11 = load i32, ptr %10, align 4, !tbaa !11
  call void (i32, ptr, i32, ptr, ...) @_ZN4absl16raw_log_internal6RawLogENS_11LogSeverityEPKciS3_z(i32 noundef 3, ptr noundef getelementptr (i8, ptr @.str, i64 129), i32 noundef 114, ptr noundef @.str.4, i32 noundef %11)
  br label %12

12:                                               ; preds = %9
  unreachable

13:                                               ; No predecessors!
  br label %14

14:                                               ; preds = %13
  call void @llvm.lifetime.end.p0(i64 8, ptr %3) #9
  br label %15

15:                                               ; preds = %14
  br label %16

16:                                               ; preds = %15, %1
  ret void
}

; Function Attrs: alwaysinline mustprogress nounwind uwtable
define linkonce_odr dso_local noundef i32 @_ZNSt13__atomic_baseIiE9fetch_addEiSt12memory_order(ptr noundef nonnull align 4 dereferenceable(4) %0, i32 noundef %1, i32 noundef %2) #6 comdat align 2 {
  %4 = alloca ptr, align 8
  %5 = alloca i32, align 4
  %6 = alloca i32, align 4
  %7 = alloca i32, align 4
  %8 = alloca i32, align 4
  store ptr %0, ptr %4, align 8, !tbaa !30
  store i32 %1, ptr %5, align 4, !tbaa !11
  store i32 %2, ptr %6, align 4, !tbaa !32
  %9 = load ptr, ptr %4, align 8
  %10 = getelementptr inbounds nuw %"struct.std::__atomic_base", ptr %9, i32 0, i32 0
  %11 = load i32, ptr %6, align 4, !tbaa !32
  %12 = load i32, ptr %5, align 4, !tbaa !11
  store i32 %12, ptr %7, align 4, !tbaa !11
  switch i32 %11, label %13 [
    i32 1, label %16
    i32 2, label %16
    i32 3, label %19
    i32 4, label %22
    i32 5, label %25
  ]

13:                                               ; preds = %3
  %14 = load i32, ptr %7, align 4
  %15 = atomicrmw add ptr %10, i32 %14 monotonic, align 4
  store i32 %15, ptr %8, align 4
  br label %28

16:                                               ; preds = %3, %3
  %17 = load i32, ptr %7, align 4
  %18 = atomicrmw add ptr %10, i32 %17 acquire, align 4
  store i32 %18, ptr %8, align 4
  br label %28

19:                                               ; preds = %3
  %20 = load i32, ptr %7, align 4
  %21 = atomicrmw add ptr %10, i32 %20 release, align 4
  store i32 %21, ptr %8, align 4
  br label %28

22:                                               ; preds = %3
  %23 = load i32, ptr %7, align 4
  %24 = atomicrmw add ptr %10, i32 %23 acq_rel, align 4
  store i32 %24, ptr %8, align 4
  br label %28

25:                                               ; preds = %3
  %26 = load i32, ptr %7, align 4
  %27 = atomicrmw add ptr %10, i32 %26 seq_cst, align 4
  store i32 %27, ptr %8, align 4
  br label %28

28:                                               ; preds = %25, %22, %19, %16, %13
  %29 = load i32, ptr %8, align 4, !tbaa !11
  ret i32 %29
}

; Function Attrs: mustprogress uwtable
define dso_local void @_ZN4absl24synchronization_internal9SemWaiter4PostEv(ptr noundef nonnull align 8 dereferenceable(36) %0) #0 align 2 {
  %2 = alloca ptr, align 8
  store ptr %0, ptr %2, align 8, !tbaa !4
  %3 = load ptr, ptr %2, align 8
  %4 = getelementptr inbounds nuw %"class.absl::synchronization_internal::SemWaiter", ptr %3, i32 0, i32 1
  %5 = call noundef i32 @_ZNSt13__atomic_baseIiE9fetch_addEiSt12memory_order(ptr noundef nonnull align 4 dereferenceable(4) %4, i32 noundef 1, i32 noundef 3) #9
  %6 = icmp eq i32 %5, 0
  br i1 %6, label %7, label %8

7:                                                ; preds = %1
  call void @_ZN4absl24synchronization_internal9SemWaiter4PokeEv(ptr noundef nonnull align 8 dereferenceable(36) %3)
  br label %8

8:                                                ; preds = %7, %1
  ret void
}