; Function Attrs: mustprogress uwtable
define dso_local void @_ZN4absl24synchronization_internal9SemWaiter4PostEv(ptr noundef nonnull align 8 dereferenceable(36) %0) local_unnamed_addr #0 align 2 {
  %2 = getelementptr inbounds nuw i8, ptr %0, i64 32
  %3 = atomicrmw add ptr %2, i32 1 release, align 4
  %4 = icmp eq i32 %3, 0
  br i1 %4, label %5, label %_ZN4absl24synchronization_internal9SemWaiter4PokeEv.exit

5:                                                ; preds = %1
  %6 = tail call i32 @sem_post(ptr noundef nonnull align 8 dereferenceable(36) %0) #5
  %.not.i = icmp eq i32 %6, 0
  br i1 %.not.i, label %_ZN4absl24synchronization_internal9SemWaiter4PokeEv.exit, label %7

7:                                                ; preds = %5
  %8 = tail call ptr @__errno_location() #6
  %9 = load i32, ptr %8, align 4, !tbaa !9
  tail call void (i32, ptr, i32, ptr, ...) @_ZN4absl16raw_log_internal6RawLogENS_11LogSeverityEPKciS3_z(i32 noundef 3, ptr noundef nonnull getelementptr inbounds nuw (i8, ptr @.str, i64 129), i32 noundef 114, ptr noundef nonnull @.str.4, i32 noundef %9)
  unreachable

_ZN4absl24synchronization_internal9SemWaiter4PokeEv.exit: ; preds = %5, %1
  ret void
}